target datalayout = "e-m:e-p270:32:32-p271:32:32-p272:64:64-i64:64-i128:128-f80:128-n8:16:32:64-S128"
target triple = "x86_64-pc-linux-gnu"

; Function Attrs: nounwind uwtable
define internal void @Int24_To_Int16(ptr noundef %0, i32 noundef %1, ptr noundef %2, i32 noundef %3, i32 noundef %4, ptr noundef %5) #0 {
  %7 = alloca ptr, align 8
  %8 = alloca i32, align 4
  %9 = alloca ptr, align 8
  %10 = alloca i32, align 4
  %11 = alloca i32, align 4
  %12 = alloca ptr, align 8
  %13 = alloca ptr, align 8
  %14 = alloca ptr, align 8
  %15 = alloca i16, align 2
  store ptr %0, ptr %7, align 8, !tbaa !70
  store i32 %1, ptr %8, align 4, !tbaa !71
  store ptr %2, ptr %9, align 8, !tbaa !70
  store i32 %3, ptr %10, align 4, !tbaa !71
  store i32 %4, ptr %11, align 4, !tbaa !71
  store ptr %5, ptr %12, align 8, !tbaa !73
  call void @llvm.lifetime.start.p0(i64 8, ptr %13) #4
  %16 = load ptr, ptr %9, align 8, !tbaa !70
  store ptr %16, ptr %13, align 8, !tbaa !87
  call void @llvm.lifetime.start.p0(i64 8, ptr %14) #4
  %17 = load ptr, ptr %7, align 8, !tbaa !70
  store ptr %17, ptr %14, align 8, !tbaa !94
  call void @llvm.lifetime.start.p0(i64 2, ptr %15) #4
  br label %18

18:                                               ; preds = %22, %6
  %19 = load i32, ptr %11, align 4, !tbaa !71
  %20 = add i32 %19, -1
  store i32 %20, ptr %11, align 4, !tbaa !71
  %21 = icmp ne i32 %19, 0
  br i1 %21, label %22, label %50

22:                                               ; preds = %18
  %23 = load ptr, ptr %13, align 8, !tbaa !87
  %24 = getelementptr inbounds i8, ptr %23, i64 1
  %25 = load i8, ptr %24, align 1, !tbaa !89
  %26 = zext i8 %25 to i16
  store i16 %26, ptr %15, align 2, !tbaa !96
  %27 = load i16, ptr %15, align 2, !tbaa !96
  %28 = sext i16 %27 to i32
  %29 = load ptr, ptr %13, align 8, !tbaa !87
  %30 = getelementptr inbounds i8, ptr %29, i64 2
  %31 = load i8, ptr %30, align 1, !tbaa !89
  %32 = zext i8 %31 to i16
  %33 = sext i16 %32 to i32
  %34 = shl i32 %33, 8
  %35 = trunc i32 %34 to i16
  %36 = sext i16 %35 to i32
  %37 = or i32 %28, %36
  %38 = trunc i32 %37 to i16
  store i16 %38, ptr %15, align 2, !tbaa !96
  %39 = load i16, ptr %15, align 2, !tbaa !96
  %40 = load ptr, ptr %14, align 8, !tbaa !94
  store i16 %39, ptr %40, align 2, !tbaa !96
  %41 = load i32, ptr %10, align 4, !tbaa !71
  %42 = mul nsw i32 %41, 3
  %43 = load ptr, ptr %13, align 8, !tbaa !87
  %44 = sext i32 %42 to i64
  %45 = getelementptr inbounds i8, ptr %43, i64 %44
  store ptr %45, ptr %13, align 8, !tbaa !87
  %46 = load i32, ptr %8, align 4, !tbaa !71
  %47 = load ptr, ptr %14, align 8, !tbaa !94
  %48 = sext i32 %46 to i64
  %49 = getelementptr inbounds i16, ptr %47, i64 %48
  store ptr %49, ptr %14, align 8, !tbaa !94
  br label %18, !llvm.loop !120

50:                                               ; preds = %18
  call void @llvm.lifetime.end.p0(i64 2, ptr %15) #4
  call void @llvm.lifetime.end.p0(i64 8, ptr %14) #4
  call void @llvm.lifetime.end.p0(i64 8, ptr %13) #4
  ret void
}